target datalayout = "e-m:e-p270:32:32-p271:32:32-p272:64:64-i64:64-i128:128-f80:128-n8:16:32:64-S128"
target triple = "x86_64-pc-linux-gnu"

@vpm = internal global ptr null, align 8
@bio_err = external global ptr, align 8
@cmp_ctx = internal global ptr null, align 8
@opt_otherpass = internal global ptr null, align 8
@.str.430 = private unnamed_addr constant [46 x i8] c"error setting verification parameters for %s\0A\00", align 1

; Function Attrs: nounwind uwtable
define internal ptr @load_trusted(ptr noundef %0, i32 noundef %1, ptr noundef %2) #0 {
  %4 = alloca ptr, align 8
  %5 = alloca ptr, align 8
  %6 = alloca i32, align 4
  %7 = alloca ptr, align 8
  %8 = alloca ptr, align 8
  %9 = alloca i32, align 4
  store ptr %0, ptr %5, align 8, !tbaa !11
  store i32 %1, ptr %6, align 4, !tbaa !4
  store ptr %2, ptr %7, align 8, !tbaa !11
  call void @llvm.lifetime.start.p0(i64 8, ptr %8) #11
  %10 = load ptr, ptr %5, align 8, !tbaa !11
  %11 = load ptr, ptr @opt_otherpass, align 8, !tbaa !11
  %12 = load ptr, ptr %7, align 8, !tbaa !11
  %13 = load ptr, ptr @vpm, align 8, !tbaa !19
  %14 = call ptr @load_certstore(ptr noundef %10, ptr noundef %11, ptr noundef %12, ptr noundef %13)
  store ptr %14, ptr %8, align 8, !tbaa !61
  %15 = load ptr, ptr %8, align 8, !tbaa !61
  %16 = icmp eq ptr %15, null
  br i1 %16, label %17, label %18

17:                                               ; preds = %3
  store ptr null, ptr %4, align 8
  store i32 1, ptr %9, align 4
  br label %39

18:                                               ; preds = %3
  %19 = load ptr, ptr %8, align 8, !tbaa !61
  call void @X509_STORE_set_verify_cb(ptr noundef %19, ptr noundef @X509_STORE_CTX_print_verify_cb)
  %20 = load ptr, ptr %8, align 8, !tbaa !61
  %21 = load ptr, ptr @vpm, align 8, !tbaa !19
  %22 = call i32 @X509_STORE_set1_param(ptr noundef %20, ptr noundef %21)
  %23 = icmp ne i32 %22, 0
  br i1 %23, label %24, label %33

24:                                               ; preds = %18
  %25 = load i32, ptr %6, align 4, !tbaa !4
  %26 = icmp ne i32 %25, 0
  br i1 %26, label %31, label %27

27:                                               ; preds = %24
  %28 = load ptr, ptr %8, align 8, !tbaa !61
  %29 = call i32 @truststore_set_host_etc(ptr noundef %28, ptr noundef null)
  %30 = icmp ne i32 %29, 0
  br i1 %30, label %31, label %33

31:                                               ; preds = %27, %24
  %32 = load ptr, ptr %8, align 8, !tbaa !61
  store ptr %32, ptr %4, align 8
  store i32 1, ptr %9, align 4
  br label %39

33:                                               ; preds = %27, %18
  %34 = load ptr, ptr @bio_err, align 8, !tbaa !21
  %35 = load ptr, ptr %7, align 8, !tbaa !11
  %36 = call i32 (ptr, ptr, ...) @BIO_printf(ptr noundef %34, ptr noundef @.str.430, ptr noundef %35)
  %37 = load ptr, ptr @cmp_ctx, align 8, !tbaa !17
  call void @OSSL_CMP_CTX_print_errors(ptr noundef %37)
  %38 = load ptr, ptr %8, align 8, !tbaa !61
  call void @X509_STORE_free(ptr noundef %38)
  store ptr null, ptr %4, align 8
  store i32 1, ptr %9, align 4
  br label %39

39:                                               ; preds = %33, %31, %17
  call void @llvm.lifetime.end.p0(i64 8, ptr %8) #11
  %40 = load ptr, ptr %4, align 8
  ret ptr %40
}