; Function Attrs: nounwind uwtable
define internal fastcc ptr @load_trusted(ptr noundef nonnull %0, i32 noundef range(i32 0, 2) %1, ptr noundef %2) unnamed_addr #0 {
  %4 = load ptr, ptr @opt_otherpass, align 8, !tbaa !4
  %5 = load ptr, ptr @vpm, align 8, !tbaa !16
  %6 = tail call ptr @load_certstore(ptr noundef nonnull %0, ptr noundef %4, ptr noundef %2, ptr noundef %5) #12
  %7 = icmp eq ptr %6, null
  br i1 %7, label %18, label %8

8:                                                ; preds = %3
  tail call void @X509_STORE_set_verify_cb(ptr noundef nonnull %6, ptr noundef nonnull @X509_STORE_CTX_print_verify_cb) #12
  %9 = load ptr, ptr @vpm, align 8, !tbaa !16
  %10 = tail call i32 @X509_STORE_set1_param(ptr noundef nonnull %6, ptr noundef %9) #12
  %.not = icmp eq i32 %10, 0
  br i1 %.not, label %14, label %11

11:                                               ; preds = %8
  %.not11 = icmp eq i32 %1, 0
  br i1 %.not11, label %12, label %18

12:                                               ; preds = %11
  %13 = tail call fastcc i32 @truststore_set_host_etc(ptr noundef %6, ptr noundef null)
  %.not12 = icmp eq i32 %13, 0
  br i1 %.not12, label %14, label %18

14:                                               ; preds = %12, %8
  %15 = load ptr, ptr @bio_err, align 8, !tbaa !12
  %16 = tail call i32 (ptr, ptr, ...) @BIO_printf(ptr noundef %15, ptr noundef nonnull @.str.430, ptr noundef %2) #12
  %17 = load ptr, ptr @cmp_ctx, align 8, !tbaa !36
  tail call void @OSSL_CMP_CTX_print_errors(ptr noundef %17) #12
  tail call void @X509_STORE_free(ptr noundef nonnull %6) #12
  br label %18

18:                                               ; preds = %11, %12, %3, %14
  %.0 = phi ptr [ null, %14 ], [ null, %3 ], [ %6, %12 ], [ %6, %11 ]
  ret ptr %.0
}